; Function Attrs: nounwind uwtable
define internal void @collect_all_decoders(ptr noundef %0, ptr noundef %1) #0 {
  %3 = tail call i32 @OSSL_DECODER_up_ref(ptr noundef %0) #8
  %.not = icmp eq i32 %3, 0
  br i1 %.not, label %7, label %4

4:                                                ; preds = %2
  %5 = tail call i32 @OPENSSL_sk_push(ptr noundef %1, ptr noundef %0) #8
  %.not5 = icmp eq i32 %5, 0
  br i1 %.not5, label %6, label %7

6:                                                ; preds = %4
  tail call void @OSSL_DECODER_free(ptr noundef %0) #8
  br label %7

7:                                                ; preds = %6, %4, %2
  ret void
}